target datalayout = "e-m:e-p270:32:32-p271:32:32-p272:64:64-i64:64-i128:128-f80:128-n8:16:32:64-S128"
target triple = "x86_64-pc-linux-gnu"

%struct.PJconsts = type { ptr, ptr, ptr, ptr, ptr, ptr, ptr, ptr, ptr, ptr, ptr, ptr, i32, ptr, ptr, ptr, ptr, ptr, ptr, ptr, ptr, double, double, double, double, double, double, double, double, double, double, double, double, double, double, double, double, double, double, double, double, double, double, i32, i32, i32, i32, i32, i32, i32, i32, i32, i32, i32, ptr, ptr, ptr, ptr, ptr, ptr, double, double, double, double, double, double, double, double, double, double, double, i32, [7 x double], i32, ptr, ptr, double, double, i32, [4 x i8], %"class.std::shared_ptr", i8, double, i8, %"class.std::__cxx11::basic_string", %"class.std::__cxx11::basic_string", %"class.std::__cxx11::basic_string", i8, %"class.std::vector", i32, %"class.std::vector.3", i32, i8, i8, i8, ptr }
%"class.std::shared_ptr" = type { %"class.std::__shared_ptr" }
%"class.std::__shared_ptr" = type { ptr, %"class.std::__shared_count" }
%"class.std::__shared_count" = type { ptr }
%"class.std::__cxx11::basic_string" = type { %"struct.std::__cxx11::basic_string<char>::_Alloc_hider", i64, %union.anon }
%"struct.std::__cxx11::basic_string<char>::_Alloc_hider" = type { ptr }
%union.anon = type { i64, [8 x i8] }
%"class.std::vector" = type { %"struct.std::_Vector_base" }
%"struct.std::_Vector_base" = type { %"struct.std::_Vector_base<osgeo::proj::operation::GridDescription, std::allocator<osgeo::proj::operation::GridDescription>>::_Vector_impl" }
%"struct.std::_Vector_base<osgeo::proj::operation::GridDescription, std::allocator<osgeo::proj::operation::GridDescription>>::_Vector_impl" = type { %"struct.std::_Vector_base<osgeo::proj::operation::GridDescription, std::allocator<osgeo::proj::operation::GridDescription>>::_Vector_impl_data" }
%"struct.std::_Vector_base<osgeo::proj::operation::GridDescription, std::allocator<osgeo::proj::operation::GridDescription>>::_Vector_impl_data" = type { ptr, ptr, ptr }
%"class.std::vector.3" = type { %"struct.std::_Vector_base.4" }
%"struct.std::_Vector_base.4" = type { %"struct.std::_Vector_base<PJCoordOperation, std::allocator<PJCoordOperation>>::_Vector_impl" }
%"struct.std::_Vector_base<PJCoordOperation, std::allocator<PJCoordOperation>>::_Vector_impl" = type { %"struct.std::_Vector_base<PJCoordOperation, std::allocator<PJCoordOperation>>::_Vector_impl_data" }
%"struct.std::_Vector_base<PJCoordOperation, std::allocator<PJCoordOperation>>::_Vector_impl_data" = type { ptr, ptr, ptr }
%union.PROJVALUE = type { double }
%"struct.(anonymous namespace)::pj_som_data" = type { double, double, double, double, double, double, double, double, double, double, double, double, double, double, double, double }

@.str.8 = private unnamed_addr constant [6 x i8] c"ipath\00", align 1
@.str.9 = private unnamed_addr constant [57 x i8] c"Invalid value for path: path should be in [1, 233] range\00", align 1

; Function Attrs: mustprogress uwtable
define hidden noundef ptr @_Z36pj_projection_specific_setup_misrsomP8PJconsts(ptr noundef %0) #0 {
  %2 = alloca ptr, align 8
  %3 = alloca ptr, align 8
  %4 = alloca i32, align 4
  %5 = alloca ptr, align 8
  %6 = alloca i32, align 4
  %7 = alloca %union.PROJVALUE, align 8
  store ptr %0, ptr %3, align 8, !tbaa !3
  call void @llvm.lifetime.start.p0(i64 4, ptr %4) #9
  call void @llvm.lifetime.start.p0(i64 8, ptr %5) #9
  %8 = call noalias ptr @calloc(i64 noundef 1, i64 noundef 128) #10
  store ptr %8, ptr %5, align 8, !tbaa !41
  %9 = load ptr, ptr %5, align 8, !tbaa !41
  %10 = icmp eq ptr null, %9
  br i1 %10, label %11, label %14

11:                                               ; preds = %1
  %12 = load ptr, ptr %3, align 8, !tbaa !3
  %13 = call noundef ptr @_Z21pj_default_destructorP8PJconstsi(ptr noundef %12, i32 noundef 4096)
  store ptr %13, ptr %2, align 8
  store i32 1, ptr %6, align 4
  br label %50

14:                                               ; preds = %1
  %15 = load ptr, ptr %5, align 8, !tbaa !41
  %16 = load ptr, ptr %3, align 8, !tbaa !3
  %17 = getelementptr inbounds nuw %struct.PJconsts, ptr %16, i32 0, i32 11
  store ptr %15, ptr %17, align 8, !tbaa !43
  call void @llvm.lifetime.start.p0(i64 8, ptr %7) #9
  %18 = load ptr, ptr %3, align 8, !tbaa !3
  %19 = getelementptr inbounds nuw %struct.PJconsts, ptr %18, i32 0, i32 0
  %20 = load ptr, ptr %19, align 8, !tbaa !44
  %21 = load ptr, ptr %3, align 8, !tbaa !3
  %22 = getelementptr inbounds nuw %struct.PJconsts, ptr %21, i32 0, i32 3
  %23 = load ptr, ptr %22, align 8, !tbaa !45
  %24 = call i64 @_Z8pj_paramP6pj_ctxP8ARG_listPKc(ptr noundef %20, ptr noundef %23, ptr noundef @.str.8)
  %25 = getelementptr inbounds nuw %union.PROJVALUE, ptr %7, i32 0, i32 0
  store i64 %24, ptr %25, align 8
  %26 = load i32, ptr %7, align 8, !tbaa !46
  store i32 %26, ptr %4, align 4, !tbaa !52
  call void @llvm.lifetime.end.p0(i64 8, ptr %7) #9
  %27 = load i32, ptr %4, align 4, !tbaa !52
  %28 = icmp sle i32 %27, 0
  br i1 %28, label %32, label %29

29:                                               ; preds = %14
  %30 = load i32, ptr %4, align 4, !tbaa !52
  %31 = icmp sgt i32 %30, 233
  br i1 %31, label %32, label %36

32:                                               ; preds = %29, %14
  %33 = load ptr, ptr %3, align 8, !tbaa !3
  call void (ptr, ptr, ...) @_Z14proj_log_errorPK8PJconstsPKcz(ptr noundef %33, ptr noundef @.str.9)
  %34 = load ptr, ptr %3, align 8, !tbaa !3
  %35 = call noundef ptr @_Z21pj_default_destructorP8PJconstsi(ptr noundef %34, i32 noundef 1027)
  store ptr %35, ptr %2, align 8
  store i32 1, ptr %6, align 4
  br label %50

36:                                               ; preds = %29
  %37 = load i32, ptr %4, align 4, !tbaa !52
  %38 = sitofp i32 %37 to double
  %39 = call double @llvm.fmuladd.f64(double 0xBF9B9D1888886F13, double %38, double 0x40020DF19833D0B2)
  %40 = load ptr, ptr %3, align 8, !tbaa !3
  %41 = getelementptr inbounds nuw %struct.PJconsts, ptr %40, i32 0, i32 60
  store double %39, ptr %41, align 8, !tbaa !47
  %42 = load ptr, ptr %5, align 8, !tbaa !41
  %43 = getelementptr inbounds nuw %"struct.(anonymous namespace)::pj_som_data", ptr %42, i32 0, i32 15
  store double 0x3FFB739C6655343E, ptr %43, align 8, !tbaa !48
  %44 = load ptr, ptr %5, align 8, !tbaa !41
  %45 = getelementptr inbounds nuw %"struct.(anonymous namespace)::pj_som_data", ptr %44, i32 0, i32 9
  store double 0x3FB194237FA89E61, ptr %45, align 8, !tbaa !50
  %46 = load ptr, ptr %5, align 8, !tbaa !41
  %47 = getelementptr inbounds nuw %"struct.(anonymous namespace)::pj_som_data", ptr %46, i32 0, i32 13
  store double 0.000000e+00, ptr %47, align 8, !tbaa !51
  %48 = load ptr, ptr %3, align 8, !tbaa !3
  %49 = call noundef ptr @_ZL9som_setupP8PJconsts(ptr noundef %48)
  store ptr %49, ptr %2, align 8
  store i32 1, ptr %6, align 4
  br label %50

50:                                               ; preds = %36, %32, %11
  call void @llvm.lifetime.end.p0(i64 8, ptr %5) #9
  call void @llvm.lifetime.end.p0(i64 4, ptr %4) #9
  %51 = load ptr, ptr %2, align 8
  ret ptr %51
}