; Function Attrs: mustprogress uwtable
define hidden noundef ptr @_Z36pj_projection_specific_setup_misrsomP8PJconsts(ptr noundef %0) local_unnamed_addr #0 {
  %2 = tail call noalias dereferenceable_or_null(128) ptr @calloc(i64 noundef 1, i64 noundef 128) #8
  %3 = icmp eq ptr %2, null
  br i1 %3, label %4, label %6

4:                                                ; preds = %1
  %5 = tail call noundef ptr @_Z21pj_default_destructorP8PJconstsi(ptr noundef %0, i32 noundef 4096)
  br label %23

6:                                                ; preds = %1
  %7 = getelementptr inbounds nuw i8, ptr %0, i64 88
  store ptr %2, ptr %7, align 8, !tbaa !40
  %8 = load ptr, ptr %0, align 8, !tbaa !41
  %9 = getelementptr inbounds nuw i8, ptr %0, i64 24
  %10 = load ptr, ptr %9, align 8, !tbaa !42
  %11 = tail call i64 @_Z8pj_paramP6pj_ctxP8ARG_listPKc(ptr noundef %8, ptr noundef %10, ptr noundef nonnull @.str.8)
  %.sroa.0.0.extract.trunc = trunc i64 %11 to i32
  %12 = add i32 %.sroa.0.0.extract.trunc, -234
  %or.cond = icmp ult i32 %12, -233
  br i1 %or.cond, label %13, label %15

13:                                               ; preds = %6
  tail call void (ptr, ptr, ...) @_Z14proj_log_errorPK8PJconstsPKcz(ptr noundef nonnull %0, ptr noundef nonnull @.str.9)
  %14 = tail call noundef ptr @_Z21pj_default_destructorP8PJconstsi(ptr noundef nonnull %0, i32 noundef 1027)
  br label %23

15:                                               ; preds = %6
  %16 = uitofp nneg i32 %.sroa.0.0.extract.trunc to double
  %17 = tail call double @llvm.fmuladd.f64(double %16, double 0xBF9B9D1888886F13, double 0x40020DF19833D0B2)
  %18 = getelementptr inbounds nuw i8, ptr %0, i64 440
  store double %17, ptr %18, align 8, !tbaa !43
  %19 = getelementptr inbounds nuw i8, ptr %2, i64 120
  store double 0x3FFB739C6655343E, ptr %19, align 8, !tbaa !44
  %20 = getelementptr inbounds nuw i8, ptr %2, i64 72
  store double 0x3FB194237FA89E61, ptr %20, align 8, !tbaa !46
  %21 = getelementptr inbounds nuw i8, ptr %2, i64 104
  store double 0.000000e+00, ptr %21, align 8, !tbaa !47
  %22 = tail call fastcc noundef ptr @_ZL9som_setupP8PJconsts(ptr noundef nonnull %0)
  br label %23

23:                                               ; preds = %15, %13, %4
  %.0 = phi ptr [ %5, %4 ], [ %14, %13 ], [ %0, %15 ]
  ret ptr %.0
}